; Function Attrs: mustprogress nounwind uwtable
define void @_ZN14colvarbias_albD0Ev(ptr noundef nonnull align 8 dereferenceable(541) %0) unnamed_addr #1 align 2 {
  tail call void @_ZN14colvarbias_albD2Ev(ptr noundef nonnull align 8 dereferenceable(541) %0, ptr noundef nonnull @_ZTT14colvarbias_alb) #21
  %2 = getelementptr inbounds i8, ptr %0, i64 864
  tail call void @_ZN10colvardepsD2Ev(ptr noundef nonnull align 8 dereferenceable(120) %2) #21
  %3 = getelementptr inbounds i8, ptr %0, i64 544
  tail call void @_ZN11colvarparseD2Ev(ptr noundef nonnull align 8 dereferenceable(320) %3) #21
  tail call void @_ZdlPv(ptr noundef nonnull %0) #20
  ret void
}